; Function Attrs: mustprogress uwtable
define internal void @"_ZNSt17_Function_handlerIFvlEZN4pbrt10ThreadPool13ForEachThreadESt8functionIFvvEEE3$_0E9_M_invokeERKSt9_Any_dataOl"(ptr noundef nonnull readonly align 8 captures(none) dereferenceable(16) %0, ptr nonnull readonly align 8 captures(none) %1) #0 align 2 {
  %3 = getelementptr inbounds nuw i8, ptr %0, i64 8
  %4 = load ptr, ptr %3, align 8, !tbaa !418
  %5 = getelementptr inbounds nuw i8, ptr %4, i64 16
  %6 = load ptr, ptr %5, align 8, !tbaa !97
  %.not.i.i.i.i.i = icmp eq ptr %6, null
  br i1 %.not.i.i.i.i.i, label %7, label %_ZNKSt8functionIFvvEEclEv.exit.i.i.i

7:                                                ; preds = %2
  tail call void @_ZSt25__throw_bad_function_callv() #27
  unreachable

_ZNKSt8functionIFvvEEclEv.exit.i.i.i:             ; preds = %2
  %8 = getelementptr inbounds nuw i8, ptr %4, i64 24
  %9 = load ptr, ptr %8, align 8, !tbaa !154
  tail call void %9(ptr noundef nonnull align 8 dereferenceable(32) %4)
  %10 = load ptr, ptr %0, align 8, !tbaa !420
  %11 = tail call noundef zeroext i1 @_ZN4pbrt7Barrier5BlockEv(ptr noundef nonnull align 8 dereferenceable(96) %10)
  br i1 %11, label %12, label %"_ZSt10__invoke_rIvRZN4pbrt10ThreadPool13ForEachThreadESt8functionIFvvEEE3$_0JlEENSt9enable_ifIX16is_invocable_r_vIT_T0_DpT1_EES8_E4typeEOS9_DpOSA_.exit"

12:                                               ; preds = %_ZNKSt8functionIFvvEEclEv.exit.i.i.i
  %13 = load ptr, ptr %0, align 8, !tbaa !420
  %14 = icmp eq ptr %13, null
  br i1 %14, label %"_ZSt10__invoke_rIvRZN4pbrt10ThreadPool13ForEachThreadESt8functionIFvvEEE3$_0JlEENSt9enable_ifIX16is_invocable_r_vIT_T0_DpT1_EES8_E4typeEOS9_DpOSA_.exit", label %15

15:                                               ; preds = %12
  %16 = getelementptr inbounds nuw i8, ptr %13, i64 40
  tail call void @_ZNSt18condition_variableD1Ev(ptr noundef nonnull align 8 dereferenceable(48) %16) #25
  tail call void @_ZdlPvm(ptr noundef nonnull %13, i64 noundef 96) #26
  br label %"_ZSt10__invoke_rIvRZN4pbrt10ThreadPool13ForEachThreadESt8functionIFvvEEE3$_0JlEENSt9enable_ifIX16is_invocable_r_vIT_T0_DpT1_EES8_E4typeEOS9_DpOSA_.exit"

"_ZSt10__invoke_rIvRZN4pbrt10ThreadPool13ForEachThreadESt8functionIFvvEEE3$_0JlEENSt9enable_ifIX16is_invocable_r_vIT_T0_DpT1_EES8_E4typeEOS9_DpOSA_.exit": ; preds = %_ZNKSt8functionIFvvEEclEv.exit.i.i.i, %12, %15
  ret void
}